Certificate:
    Data:
        Version: 3 (0x2)
        Serial Number: 1 (0x1)
        Signature Algorithm: sha256WithRSAEncryption
        Issuer: C=GB, ST=Derbyshire, L=Derby, O=Mosquitto Project, OU=Testing, CN=Root CA
        Validity
            Not Before: Jan 15 05:59:52 2025 GMT
            Not After : Jan 14 05:59:52 2030 GMT
        Subject: C=GB, ST=Derbyshire, O=Mosquitto Project, OU=Testing, CN=Signing CA
        Subject Public Key Info:
            Public Key Algorithm: rsaEncryption
                Public-Key: (2048 bit)
                Modulus:
                    00:da:66:c6:f0:fb:48:ef:2f:a7:df:22:2a:db:cc:
                    8c:18:0d:99:18:b9:55:71:c0:90:0e:5a:c6:06:54:
                    d9:f2:ce:d5:55:05:52:be:b2:25:57:17:fc:35:03:
                    e8:0a:11:87:29:f0:47:e6:a7:4d:e4:b6:03:4a:e0:
                    37:be:de:e4:80:a4:c9:54:07:d4:84:7d:81:e2:fd:
                    50:77:ec:b1:e1:15:a6:24:bf:9a:76:63:cd:99:00:
                    dd:8b:42:0e:3b:92:7d:74:d4:35:12:79:15:07:c2:
                    19:e5:fc:dc:64:74:bd:dd:71:56:98:d9:4e:65:d8:
                    5c:86:43:e6:35:02:88:0e:a2:b0:e6:f8:2b:84:88:
                    68:28:7f:a3:71:4a:ef:4f:a6:3f:2f:58:e2:c8:86:
                    2e:07:bc:6a:3d:14:3e:ca:dc:6d:1b:6f:86:61:5b:
                    c0:bf:da:c9:45:1e:1a:a8:19:a1:66:9b:f8:4d:a2:
                    23:77:ea:8a:ef:5d:0e:6a:71:f8:26:5e:0a:e1:2d:
                    2b:1a:e8:4b:19:e2:65:7b:e8:eb:69:40:c4:e8:ea:
                    31:d2:54:24:c0:a8:d5:1e:e7:c9:0f:2b:a2:69:9f:
                    38:3c:02:37:a0:f2:ca:01:51:cf:1c:b5:21:0b:2a:
                    5c:c4:93:bb:ac:59:ff:7e:67:c6:a1:e0:84:cd:a0:
                    e6:ad
                Exponent: 65537 (0x10001)
        X509v3 extensions:
            X509v3 Subject Key Identifier: 
                53:48:5A:50:4D:78:80:6D:55:79:8A:FE:A9:A3:68:7A:04:9A:F0:87
            X509v3 Authority Key Identifier: 
                0F:B8:7D:2E:0F:7C:9E:AA:4F:C6:6B:2B:AE:90:CF:CE:E8:2C:45:CC
            X509v3 Basic Constraints: critical
                CA:TRUE
            X509v3 Key Usage: 
                Certificate Sign, CRL Sign
    Signature Algorithm: sha256WithRSAEncryption
    Signature Value:
        35:7d:11:3c:db:4d:b5:63:d3:c0:6d:61:fa:6c:e5:43:15:aa:
        c6:c4:f7:20:5b:78:aa:95:b7:e4:cf:89:ca:c8:17:10:d0:f0:
        69:12:96:e4:f3:c5:58:ab:aa:e0:be:eb:5d:37:43:af:9e:3a:
        6f:f9:ef:cf:6f:f5:67:25:62:e4:70:8e:08:9a:fc:17:32:45:
        b5:f1:c8:6c:ad:e8:4c:2f:14:67:24:e0:24:b6:84:22:34:26:
        8b:6d:ff:e1:5c:9d:c2:84:18:d7:9d:48:ad:a0:0b:9c:ed:cd:
        9e:d4:a8:20:7a:41:ea:c3:00:a3:3b:a5:ab:22:ad:41:45:5a:
        17:5f:e2:1a:8c:9f:ab:be:bc:7b:3d:a4:23:93:db:80:2c:1b:
        9b:50:cf:72:b9:ef:f5:54:76:63:47:a0:73:bd:57:37:51:47:
        e6:0e:f6:b2:81:70:11:db:88:44:6d:82:96:6f:85:6d:67:25:
        1b:67:b3:ad:3c:59:17:96:6a:c0:9f:f4:d4:8a:5a:ee:81:8d:
        8f:18:2c:92:9c:ab:26:40:36:21:ba:1b:db:13:65:34:dd:bf:
        26:ad:12:1f:aa:97:55:c5:d4:60:e5:9e:75:37:3d:3c:3b:b2:
        b0:97:15:6a:a9:1e:66:bf:a4:64:82:6b:8e:60:f4:26:a0:5c:
        81:f1:f4:64
-----BEGIN CERTIFICATE-----
MIIDsjCCApqgAwIBAgIBATANBgkqhkiG9w0BAQsFADByMQswCQYDVQQGEwJHQjET
MBEGA1UECAwKRGVyYnlzaGlyZTEOMAwGA1UEBwwFRGVyYnkxGjAYBgNVBAoMEU1v
c3F1aXR0byBQcm9qZWN0MRAwDgYDVQQLDAdUZXN0aW5nMRAwDgYDVQQDDAdSb290
IENBMB4XDTI1MDExNTA1NTk1MloXDTMwMDExNDA1NTk1MlowZTELMAkGA1UEBhMC
R0IxEzARBgNVBAgMCkRlcmJ5c2hpcmUxGjAYBgNVBAoMEU1vc3F1aXR0byBQcm9q
ZWN0MRAwDgYDVQQLDAdUZXN0aW5nMRMwEQYDVQQDDApTaWduaW5nIENBMIIBIjAN
BgkqhkiG9w0BAQEFAAOCAQ8AMIIBCgKCAQEA2mbG8PtI7y+n3yIq28yMGA2ZGLlV
ccCQDlrGBlTZ8s7VVQVSvrIlVxf8NQPoChGHKfBH5qdN5LYDSuA3vt7kgKTJVAfU
hH2B4v1Qd+yx4RWmJL+admPNmQDdi0IOO5J9dNQ1EnkVB8IZ5fzcZHS93XFWmNlO
ZdhchkPmNQKIDqKw5vgrhIhoKH+jcUrvT6Y/L1jiyIYuB7xqPRQ+ytxtG2+GYVvA
v9rJRR4aqBmhZpv4TaIjd+qK710OanH4Jl4K4S0rGuhLGeJle+jraUDE6Oox0lQk
wKjVHufJDyuiaZ84PAI3oPLKAVHPHLUhCypcxJO7rFn/fmfGoeCEzaDmrQIDAQAB
o2AwXjAdBgNVHQ4EFgQUU0haUE14gG1VeYr+qaNoegSa8IcwHwYDVR0jBBgwFoAU
D7h9Lg98nqpPxmsrrpDPzugsRcwwDwYDVR0TAQH/BAUwAwEB/zALBgNVHQ8EBAMC
AQYwDQYJKoZIhvcNAQELBQADggEBADV9ETzbTbVj08BtYfps5UMVqsbE9yBbeKqV
t+TPicrIFxDQ8GkSluTzxVirquC+6103Q6+eOm/5789v9WclYuRwjgia/BcyRbXx
yGyt6EwvFGck4CS2hCI0Jott/+FcncKEGNedSK2gC5ztzZ7UqCB6QerDAKM7pasi
rUFFWhdf4hqMn6u+vHs9pCOT24AsG5tQz3K57/VUdmNHoHO9VzdRR+YO9rKBcBHb
iERtgpZvhW1nJRtns608WReWasCf9NSKWu6BjY8YLJKcqyZANiG6G9sTZTTdvyat
Eh+ql1XF1GDlnnU3PTw7srCXFWqpHma/pGSCa45g9CagXIHx9GQ=
-----END CERTIFICATE-----
-----BEGIN CERTIFICATE-----
MIID0jCCArqgAwIBAgIUW8+lC7lrC3H9c9s3xSbY7PqwZ0YwDQYJKoZIhvcNAQEL
BQAwcjELMAkGA1UEBhMCR0IxEzARBgNVBAgMCkRlcmJ5c2hpcmUxDjAMBgNVBAcM
BURlcmJ5MRowGAYDVQQKDBFNb3NxdWl0dG8gUHJvamVjdDEQMA4GA1UECwwHVGVz
dGluZzEQMA4GA1UEAwwHUm9vdCBDQTAeFw0yNTAxMTUwNTU5NTFaFw0zNTAxMTMw
NTU5NTFaMHIxCzAJBgNVBAYTAkdCMRMwEQYDVQQIDApEZXJieXNoaXJlMQ4wDAYD
VQQHDAVEZXJieTEaMBgGA1UECgwRTW9zcXVpdHRvIFByb2plY3QxEDAOBgNVBAsM
B1Rlc3RpbmcxEDAOBgNVBAMMB1Jvb3QgQ0EwggEiMA0GCSqGSIb3DQEBAQUAA4IB
DwAwggEKAoIBAQDAK2HNO04pSn4OD45IA2nph6j9iiS5fg7ppJKV67dUvXFDjf/h
OKmP2dOgF2TyD0erKKB7MdCHJxEmt6yT873Js4Sdo6RioApUtcAzdlO7e7EYR8Y2
HMh5dlwniOoRDeIHUeCcSdn+t+751vBusGbQVEFGJdmW9eo+gkNYa4C48kxF/ntL
drDNIUPL/WZmjE6lqeF4n5ShrRenkPduZ2Z+YOua6eKY22q5PaoULN6kSUcDw3iP
3j7WHt2yvf+Wl6G5Xb0gf+btEoX/FR5wwj0blbT3eSbjqqxuwp7M6v7TYPeptVfI
1PSd2e6AS5MPjOpe3PccCnUQFVhgZ/YQksz5AgMBAAGjYDBeMB0GA1UdDgQWBBQP
uH0uD3yeqk/GayuukM/O6CxFzDAfBgNVHSMEGDAWgBQPuH0uD3yeqk/GayuukM/O
6CxFzDAPBgNVHRMBAf8EBTADAQH/MAsGA1UdDwQEAwIBBjANBgkqhkiG9w0BAQsF
AAOCAQEAHoScGN8Wpx3D6N5tZLzJ+3b5bbuUv+RYdcMvbQpfDtbpoqolPCHDa0AZ
vwkYL/X9VUIiyi9RoTz3jARqL8+cJPF9FwBtuEZcrrs4doLR4uFHpDFY/qFxsa3W
e7WOiUTRQUi4jzVoUqomJJ0tyAEBLea4Wjnr8v20ao56NC1bZk3jU4yn22NTlpS/
gDFdSc0D1+VxgaOwZBPPT8yGcPe1JfyPzTII4m5B3LhTjOljtt4DygXEPC8D6yA/
KPOiXBTSGRa2sqXVt2lHqKFloPMlipI6+raG40m9iILrmEfVWa7vr0n/oChPGYGD
hTtA/VDL/ziC40s7Mv0kyDIZhV+TlA==
-----END CERTIFICATE-----
