Certificate:
    Data:
        Version: 3 (0x2)
        Serial Number: 6 (0x6)
        Signature Algorithm: sha256WithRSAEncryption
        Issuer: C=GB, ST=Derbyshire, O=Mosquitto Project, OU=Testing, CN=Signing CA
        Validity
            Not Before: Mar  8 06:51:49 2025 GMT
            Not After : Mar  7 06:51:49 2030 GMT
        Subject: C=GB, ST=Nottinghamshire, L=Nottingham, O=Server, OU=Production, CN=test client encrypted
        Subject Public Key Info:
            Public Key Algorithm: rsaEncryption
                Public-Key: (2048 bit)
                Modulus:
                    00:88:de:d2:0e:fb:04:d8:4d:33:7e:f3:80:11:c5:
                    b2:64:8f:a7:78:8c:8f:a2:16:af:e5:08:a6:1e:75:
                    bd:a4:bd:f7:ee:88:11:e7:32:e7:68:75:44:65:73:
                    4c:06:b1:89:5b:50:99:68:e3:86:56:89:87:fb:37:
                    76:76:d6:06:73:23:95:2b:7d:b5:3e:5f:a1:3e:fb:
                    94:4f:46:5a:d1:57:9f:19:4d:e8:6f:46:fd:65:b3:
                    40:f1:d7:8e:a1:69:f1:1e:d9:1d:5a:9d:1c:15:c4:
                    df:ee:a4:1d:b4:2a:1b:9e:d6:f6:6e:64:d3:3e:92:
                    52:fa:82:75:a6:a8:ec:84:a7:4a:89:7b:7d:b9:a4:
                    bb:50:7c:33:d9:f1:8b:70:f3:ad:d5:e0:ed:79:a6:
                    fb:87:24:7c:34:18:d8:1d:d1:4c:c3:2b:f9:1c:a9:
                    2a:c3:d5:e6:3a:64:cd:52:5c:24:28:6c:0d:3e:ab:
                    cf:f3:29:f0:da:2a:6c:59:cf:ad:d3:3d:e5:01:e9:
                    0c:16:31:fb:9a:44:8e:74:68:2f:27:60:6c:b2:0c:
                    94:d3:ad:0a:de:71:8a:4d:fb:46:11:21:b4:ae:be:
                    79:56:9d:e7:af:1d:7c:d1:8c:57:63:14:53:27:9c:
                    05:fd:93:1b:cd:12:9a:6e:87:56:5c:e3:99:37:bb:
                    1b:e5
                Exponent: 65537 (0x10001)
        X509v3 extensions:
            X509v3 Basic Constraints: 
                CA:FALSE
            Netscape Comment: 
                OpenSSL Generated Certificate
            X509v3 Subject Key Identifier: 
                E7:03:E7:67:49:25:85:0D:CE:09:86:94:04:85:41:97:46:6B:EF:75
            X509v3 Authority Key Identifier: 
                D0:C5:36:E1:A8:5A:23:A3:5D:BD:9B:9E:88:BC:98:CB:C8:1C:B3:36
    Signature Algorithm: sha256WithRSAEncryption
    Signature Value:
        c4:ce:73:37:c4:2d:f2:69:ab:94:2e:4f:45:53:93:91:b2:f8:
        05:2e:8c:5f:0e:9b:17:de:47:7c:59:3f:b8:8d:8b:22:63:67:
        7c:9f:ac:41:0a:33:c3:70:b9:0d:51:f9:d1:1a:07:30:5e:c4:
        b0:3d:08:ab:e0:d1:7d:cf:81:22:8c:32:45:f2:e0:dc:a2:71:
        0b:af:b9:1e:b1:d0:26:ce:0f:7f:0b:d2:3c:69:89:19:30:eb:
        84:fd:99:10:4c:0a:93:3d:17:8d:7c:44:d9:46:07:6f:8b:a5:
        b9:c2:fc:34:db:85:ab:1c:08:46:44:a7:8c:6c:f1:0b:d2:f5:
        c4:7d:13:02:68:da:4b:cf:aa:74:bb:48:a2:bc:37:3b:b8:da:
        b1:d7:b7:4c:74:fc:41:62:f7:2a:f1:61:3d:8f:93:08:6d:42:
        52:1a:43:a3:32:d7:d0:38:70:1e:11:22:5e:dc:84:56:ee:b0:
        ef:a9:18:5a:df:7f:3f:85:0d:62:43:6e:10:87:c0:5d:4c:67:
        55:32:78:d7:91:30:56:4a:41:4c:4d:ed:7e:45:13:7c:18:14:
        dd:ce:0e:48:31:80:de:76:37:3b:ed:d8:e8:fd:3d:3e:ee:d6:
        d2:20:55:1f:8c:8e:8b:dd:f3:64:39:db:2f:67:59:6d:cc:e3:
        ca:ba:79:15
-----BEGIN CERTIFICATE-----
MIID3jCCAsagAwIBAgIBBjANBgkqhkiG9w0BAQsFADBlMQswCQYDVQQGEwJHQjET
MBEGA1UECAwKRGVyYnlzaGlyZTEaMBgGA1UECgwRTW9zcXVpdHRvIFByb2plY3Qx
EDAOBgNVBAsMB1Rlc3RpbmcxEzARBgNVBAMMClNpZ25pbmcgQ0EwHhcNMjUwMzA4
MDY1MTQ5WhcNMzAwMzA3MDY1MTQ5WjCBgjELMAkGA1UEBhMCR0IxGDAWBgNVBAgM
D05vdHRpbmdoYW1zaGlyZTETMBEGA1UEBwwKTm90dGluZ2hhbTEPMA0GA1UECgwG
U2VydmVyMRMwEQYDVQQLDApQcm9kdWN0aW9uMR4wHAYDVQQDDBV0ZXN0IGNsaWVu
dCBlbmNyeXB0ZWQwggEiMA0GCSqGSIb3DQEBAQUAA4IBDwAwggEKAoIBAQCI3tIO
+wTYTTN+84ARxbJkj6d4jI+iFq/lCKYedb2kvffuiBHnMudodURlc0wGsYlbUJlo
44ZWiYf7N3Z21gZzI5UrfbU+X6E++5RPRlrRV58ZTehvRv1ls0Dx146hafEe2R1a
nRwVxN/upB20Khue1vZuZNM+klL6gnWmqOyEp0qJe325pLtQfDPZ8Ytw863V4O15
pvuHJHw0GNgd0UzDK/kcqSrD1eY6ZM1SXCQobA0+q8/zKfDaKmxZz63TPeUB6QwW
MfuaRI50aC8nYGyyDJTTrQrecYpN+0YRIbSuvnlWneevHXzRjFdjFFMnnAX9kxvN
Eppuh1Zc45k3uxvlAgMBAAGjezB5MAkGA1UdEwQCMAAwLAYJYIZIAYb4QgENBB8W
HU9wZW5TU0wgR2VuZXJhdGVkIENlcnRpZmljYXRlMB0GA1UdDgQWBBTnA+dnSSWF
Dc4JhpQEhUGXRmvvdTAfBgNVHSMEGDAWgBTQxTbhqFojo129m56IvJjLyByzNjAN
BgkqhkiG9w0BAQsFAAOCAQEAxM5zN8Qt8mmrlC5PRVOTkbL4BS6MXw6bF95HfFk/
uI2LImNnfJ+sQQozw3C5DVH50RoHMF7EsD0Iq+DRfc+BIowyRfLg3KJxC6+5HrHQ
Js4PfwvSPGmJGTDrhP2ZEEwKkz0XjXxE2UYHb4ulucL8NNuFqxwIRkSnjGzxC9L1
xH0TAmjaS8+qdLtIorw3O7jasde3THT8QWL3KvFhPY+TCG1CUhpDozLX0DhwHhEi
XtyEVu6w76kYWt9/P4UNYkNuEIfAXUxnVTJ415EwVkpBTE3tfkUTfBgU3c4OSDGA
3nY3O+3Y6P09Pu7W0iBVH4yOi93zZDnbL2dZbczjyrp5FQ==
-----END CERTIFICATE-----
