Certificate:
    Data:
        Version: 3 (0x2)
        Serial Number: 4 (0x4)
        Signature Algorithm: sha256WithRSAEncryption
        Issuer: C=GB, ST=Derbyshire, O=Mosquitto Project, OU=Testing, CN=Signing CA
        Validity
            Not Before: Aug 20 00:00:00 2012 GMT
            Not After : Aug 21 00:00:00 2012 GMT
        Subject: C=GB, ST=Nottinghamshire, L=Nottingham, O=Server, OU=Production, CN=test client expired
        Subject Public Key Info:
            Public Key Algorithm: rsaEncryption
                Public-Key: (2048 bit)
                Modulus:
                    00:b7:3d:96:39:40:ae:d6:f3:2b:25:31:8c:cf:2e:
                    4f:12:1c:47:b9:ec:1e:75:28:0a:f6:c5:fe:1c:89:
                    ba:37:90:f1:fa:38:a4:c3:77:ef:4e:9a:45:08:00:
                    1d:2b:4d:a0:83:ba:48:1c:68:07:7e:ec:14:4b:ff:
                    28:9a:35:93:12:32:68:71:9a:1a:ad:80:06:41:4a:
                    ea:9f:02:b5:dc:fe:86:87:e8:85:85:ff:5c:70:39:
                    06:e8:90:e6:d1:e5:05:bb:fb:88:78:42:21:b8:07:
                    58:33:0b:f9:24:10:99:5e:2c:8e:e9:88:63:f4:d4:
                    fe:cc:b1:88:55:e3:69:53:4a:66:ec:02:19:ea:eb:
                    94:6b:62:61:85:13:0f:02:a2:f1:86:9d:29:0e:e4:
                    88:f8:7d:fb:ef:da:f0:6a:89:ee:2a:0c:66:51:99:
                    39:f5:8a:a0:dc:f2:1f:97:57:b6:d9:d4:43:4f:96:
                    ca:8f:77:e2:d0:66:12:9f:52:8d:24:b7:b4:e8:8d:
                    93:73:d0:3e:4a:f2:f1:79:72:56:a4:7e:2e:63:99:
                    ea:0a:18:3c:39:9a:19:f4:28:c2:41:06:e7:6d:ee:
                    47:f7:e7:49:d4:6e:17:40:c9:d6:5d:a5:03:c4:bb:
                    cd:8b:23:20:01:25:fe:1e:3b:f6:fb:08:d6:8c:b1:
                    8e:35
                Exponent: 65537 (0x10001)
        X509v3 extensions:
            X509v3 Basic Constraints: 
                CA:FALSE
            Netscape Comment: 
                OpenSSL Generated Certificate
            X509v3 Subject Key Identifier: 
                C4:A2:2F:7C:F0:9C:E5:17:F3:ED:B1:3D:98:92:F1:C7:5B:2C:A0:1D
            X509v3 Authority Key Identifier: 
                D0:C5:36:E1:A8:5A:23:A3:5D:BD:9B:9E:88:BC:98:CB:C8:1C:B3:36
    Signature Algorithm: sha256WithRSAEncryption
    Signature Value:
        5e:3a:20:ff:09:d7:9f:1a:a2:42:ad:a3:a3:62:35:93:11:dc:
        89:fe:dd:7f:23:28:55:82:a5:5b:72:c5:02:20:db:06:d0:b3:
        5c:4c:9d:54:03:29:d0:16:a2:a5:51:cd:55:b9:19:16:3c:f9:
        b6:cd:ab:95:a3:33:a7:ba:df:f3:87:c5:bb:e5:77:ed:b6:cc:
        f2:ae:f8:f2:b9:0b:09:80:4b:1d:cc:52:39:58:98:53:0d:ca:
        84:5e:d3:a6:7a:ac:40:2a:f9:d3:56:79:a0:1b:f3:62:1a:06:
        b1:04:02:52:41:89:50:01:98:a1:4d:07:9f:ad:38:96:ce:dd:
        7f:c2:75:37:6c:68:ab:fb:13:c1:8b:44:a6:ae:5f:a2:5c:58:
        a1:8e:be:51:07:ac:52:22:ac:41:d0:f2:97:a9:1e:e5:5e:33:
        ac:56:ad:3a:3d:be:67:3c:18:c7:6e:1f:39:11:f6:66:48:19:
        50:b9:14:86:34:f0:7e:23:c2:ee:dd:06:55:56:96:e0:30:c4:
        4b:84:1d:eb:2f:fc:45:0c:c3:0f:8b:07:e4:b3:11:d3:48:16:
        59:7c:60:b2:7b:62:60:25:78:5a:2e:30:5d:11:8b:f9:ea:6b:
        20:2c:33:bb:20:9f:40:a7:02:33:e1:56:fd:ce:5a:1b:ba:36:
        ec:bd:ed:54
-----BEGIN CERTIFICATE-----
MIID3DCCAsSgAwIBAgIBBDANBgkqhkiG9w0BAQsFADBlMQswCQYDVQQGEwJHQjET
MBEGA1UECAwKRGVyYnlzaGlyZTEaMBgGA1UECgwRTW9zcXVpdHRvIFByb2plY3Qx
EDAOBgNVBAsMB1Rlc3RpbmcxEzARBgNVBAMMClNpZ25pbmcgQ0EwHhcNMTIwODIw
MDAwMDAwWhcNMTIwODIxMDAwMDAwWjCBgDELMAkGA1UEBhMCR0IxGDAWBgNVBAgM
D05vdHRpbmdoYW1zaGlyZTETMBEGA1UEBwwKTm90dGluZ2hhbTEPMA0GA1UECgwG
U2VydmVyMRMwEQYDVQQLDApQcm9kdWN0aW9uMRwwGgYDVQQDDBN0ZXN0IGNsaWVu
dCBleHBpcmVkMIIBIjANBgkqhkiG9w0BAQEFAAOCAQ8AMIIBCgKCAQEAtz2WOUCu
1vMrJTGMzy5PEhxHuewedSgK9sX+HIm6N5Dx+jikw3fvTppFCAAdK02gg7pIHGgH
fuwUS/8omjWTEjJocZoarYAGQUrqnwK13P6Gh+iFhf9ccDkG6JDm0eUFu/uIeEIh
uAdYMwv5JBCZXiyO6Yhj9NT+zLGIVeNpU0pm7AIZ6uuUa2JhhRMPAqLxhp0pDuSI
+H3779rwaonuKgxmUZk59Yqg3PIfl1e22dRDT5bKj3fi0GYSn1KNJLe06I2Tc9A+
SvLxeXJWpH4uY5nqChg8OZoZ9CjCQQbnbe5H9+dJ1G4XQMnWXaUDxLvNiyMgASX+
Hjv2+wjWjLGONQIDAQABo3sweTAJBgNVHRMEAjAAMCwGCWCGSAGG+EIBDQQfFh1P
cGVuU1NMIEdlbmVyYXRlZCBDZXJ0aWZpY2F0ZTAdBgNVHQ4EFgQUxKIvfPCc5Rfz
7bE9mJLxx1ssoB0wHwYDVR0jBBgwFoAU0MU24ahaI6NdvZueiLyYy8gcszYwDQYJ
KoZIhvcNAQELBQADggEBAF46IP8J158aokKto6NiNZMR3In+3X8jKFWCpVtyxQIg
2wbQs1xMnVQDKdAWoqVRzVW5GRY8+bbNq5WjM6e63/OHxbvld+22zPKu+PK5CwmA
Sx3MUjlYmFMNyoRe06Z6rEAq+dNWeaAb82IaBrEEAlJBiVABmKFNB5+tOJbO3X/C
dTdsaKv7E8GLRKauX6JcWKGOvlEHrFIirEHQ8pepHuVeM6xWrTo9vmc8GMduHzkR
9mZIGVC5FIY08H4jwu7dBlVWluAwxEuEHesv/EUMww+LB+SzEdNIFll8YLJ7YmAl
eFouMF0Ri/nqayAsM7sgn0CnAjPhVv3OWhu6Nuy97VQ=
-----END CERTIFICATE-----
