Certificate:
    Data:
        Version: 3 (0x2)
        Serial Number: 2 (0x2)
        Signature Algorithm: sha256WithRSAEncryption
        Issuer: C=GB, ST=Derbyshire, O=Mosquitto Project, OU=Testing, CN=Signing CA
        Validity
            Not Before: Aug 20 00:00:00 2012 GMT
            Not After : Aug 21 00:00:00 2012 GMT
        Subject: C=GB, ST=Nottinghamshire, L=Nottingham, O=Server, OU=Production-expired, CN=localhost
        Subject Public Key Info:
            Public Key Algorithm: rsaEncryption
                Public-Key: (2048 bit)
                Modulus:
                    00:9a:c0:95:c8:63:84:84:7f:76:eb:a2:34:74:0e:
                    c3:4f:98:01:5a:b3:f2:94:a9:79:ad:05:2e:09:47:
                    65:3f:76:c0:ad:aa:7b:e8:44:a6:2b:ca:ff:29:b4:
                    f0:70:5f:10:7f:fa:b6:8b:18:8b:a8:e3:ce:7c:87:
                    1d:1b:a1:59:ff:53:1f:95:5b:8b:7d:66:c0:a9:bc:
                    04:5c:a8:5e:ca:bf:9f:ce:f0:7c:c0:e3:b4:77:03:
                    67:b6:73:9f:40:c9:b7:0d:4d:9f:32:1b:f9:56:f9:
                    84:27:2d:79:18:62:05:26:a4:9b:1a:bb:23:ad:a9:
                    c1:b7:8c:12:fd:b4:1c:a9:39:4e:44:a8:fc:a2:56:
                    0f:26:25:b4:b8:84:5d:51:02:f4:39:4f:83:98:5e:
                    cb:f2:09:8f:c9:ae:6c:24:12:b3:5d:ad:ab:5f:ac:
                    cd:30:64:78:bd:3e:7d:34:55:f4:ff:d7:d8:6b:30:
                    85:f6:2a:2d:58:70:3a:a4:29:28:2e:6f:30:02:94:
                    90:d6:34:c4:f9:15:1f:87:a7:0f:22:84:1f:0c:be:
                    b2:5e:56:99:b4:92:17:2f:7c:b3:2f:9b:26:73:bb:
                    f8:e8:9e:5f:51:3f:38:eb:76:26:39:5a:f0:59:31:
                    bf:ef:c1:b0:71:11:96:e4:0d:7e:8e:1a:f0:03:e7:
                    ec:05
                Exponent: 65537 (0x10001)
        X509v3 extensions:
            X509v3 Basic Constraints: 
                CA:FALSE
            Netscape Comment: 
                OpenSSL Generated Certificate
            X509v3 Subject Key Identifier: 
                41:72:B4:EA:35:70:5E:26:8B:B1:B8:7D:E5:E9:5B:ED:02:2E:66:8B
            X509v3 Authority Key Identifier: 
                D0:C5:36:E1:A8:5A:23:A3:5D:BD:9B:9E:88:BC:98:CB:C8:1C:B3:36
    Signature Algorithm: sha256WithRSAEncryption
    Signature Value:
        2f:4f:40:64:25:80:c4:07:f1:da:d4:88:27:0d:10:04:30:51:
        8d:ff:f6:51:1c:f7:43:62:48:5e:c5:7b:6a:b8:a5:95:cc:d2:
        f3:2b:a6:d3:cc:93:a8:5a:a5:a2:31:eb:ec:0e:3b:73:08:c1:
        6f:0a:12:ce:fc:7e:9f:e7:9b:8b:00:1b:b6:c1:b6:7c:d5:8b:
        1f:d0:82:2e:0d:39:e3:5f:27:2c:9e:93:5a:c7:bf:be:76:d6:
        56:3e:8e:93:d4:56:cd:a8:2a:2f:c2:cf:18:4e:6e:3e:47:48:
        b6:4d:1e:5e:24:74:51:e1:b9:84:d6:1e:53:c3:b8:9d:ba:0d:
        64:ac:e6:f8:b7:cc:ad:65:3c:35:23:e6:e5:ac:3e:fe:aa:47:
        66:25:39:be:e5:96:8c:8d:65:52:7b:7b:75:46:1d:3a:e7:16:
        36:09:31:e9:7c:7e:f0:f6:02:33:43:ef:bd:8d:ca:9a:09:5e:
        94:69:5c:dc:90:9b:7c:bb:e1:ec:2e:b6:0f:fe:81:3b:72:95:
        0d:0f:04:2f:43:8f:12:4b:c4:5f:fa:af:5d:c2:33:44:80:7c:
        d0:fd:2f:14:22:47:2a:95:b0:68:cd:eb:d1:88:9b:18:2a:fa:
        0f:63:4b:99:32:4b:fb:a6:76:fa:87:98:4c:18:61:c9:a4:f1:
        47:31:71:99
-----BEGIN CERTIFICATE-----
MIID2TCCAsGgAwIBAgIBAjANBgkqhkiG9w0BAQsFADBlMQswCQYDVQQGEwJHQjET
MBEGA1UECAwKRGVyYnlzaGlyZTEaMBgGA1UECgwRTW9zcXVpdHRvIFByb2plY3Qx
EDAOBgNVBAsMB1Rlc3RpbmcxEzARBgNVBAMMClNpZ25pbmcgQ0EwHhcNMTIwODIw
MDAwMDAwWhcNMTIwODIxMDAwMDAwWjB+MQswCQYDVQQGEwJHQjEYMBYGA1UECAwP
Tm90dGluZ2hhbXNoaXJlMRMwEQYDVQQHDApOb3R0aW5naGFtMQ8wDQYDVQQKDAZT
ZXJ2ZXIxGzAZBgNVBAsMElByb2R1Y3Rpb24tZXhwaXJlZDESMBAGA1UEAwwJbG9j
YWxob3N0MIIBIjANBgkqhkiG9w0BAQEFAAOCAQ8AMIIBCgKCAQEAmsCVyGOEhH92
66I0dA7DT5gBWrPylKl5rQUuCUdlP3bArap76ESmK8r/KbTwcF8Qf/q2ixiLqOPO
fIcdG6FZ/1MflVuLfWbAqbwEXKheyr+fzvB8wOO0dwNntnOfQMm3DU2fMhv5VvmE
Jy15GGIFJqSbGrsjranBt4wS/bQcqTlORKj8olYPJiW0uIRdUQL0OU+DmF7L8gmP
ya5sJBKzXa2rX6zNMGR4vT59NFX0/9fYazCF9iotWHA6pCkoLm8wApSQ1jTE+RUf
h6cPIoQfDL6yXlaZtJIXL3yzL5smc7v46J5fUT8463YmOVrwWTG/78GwcRGW5A1+
jhrwA+fsBQIDAQABo3sweTAJBgNVHRMEAjAAMCwGCWCGSAGG+EIBDQQfFh1PcGVu
U1NMIEdlbmVyYXRlZCBDZXJ0aWZpY2F0ZTAdBgNVHQ4EFgQUQXK06jVwXiaLsbh9
5elb7QIuZoswHwYDVR0jBBgwFoAU0MU24ahaI6NdvZueiLyYy8gcszYwDQYJKoZI
hvcNAQELBQADggEBAC9PQGQlgMQH8drUiCcNEAQwUY3/9lEc90NiSF7Fe2q4pZXM
0vMrptPMk6hapaIx6+wOO3MIwW8KEs78fp/nm4sAG7bBtnzVix/Qgi4NOeNfJyye
k1rHv7521lY+jpPUVs2oKi/CzxhObj5HSLZNHl4kdFHhuYTWHlPDuJ26DWSs5vi3
zK1lPDUj5uWsPv6qR2YlOb7lloyNZVJ7e3VGHTrnFjYJMel8fvD2AjND772NypoJ
XpRpXNyQm3y74ewutg/+gTtylQ0PBC9DjxJLxF/6r13CM0SAfND9LxQiRyqVsGjN
69GImxgq+g9jS5kyS/umdvqHmEwYYcmk8UcxcZk=
-----END CERTIFICATE-----
