Certificate:
    Data:
        Version: 3 (0x2)
        Serial Number: 2 (0x2)
        Signature Algorithm: sha256WithRSAEncryption
        Issuer: C=GB, ST=Derbyshire, O=Mosquitto Project, OU=Testing, CN=Signing CA
        Validity
            Not Before: Aug 20 00:00:00 2012 GMT
            Not After : Aug 21 00:00:00 2012 GMT
        Subject: C=GB, ST=Nottinghamshire, L=Nottingham, O=Server, OU=Production-expired, CN=localhost
        Subject Public Key Info:
            Public Key Algorithm: rsaEncryption
                Public-Key: (2048 bit)
                Modulus:
                    00:97:a0:c8:2e:50:b0:14:d7:84:7e:f6:e8:cd:1b:
                    dd:3a:b9:ed:7d:a2:63:37:4b:e5:0f:26:a0:fb:27:
                    94:40:5c:a1:24:9a:28:15:5f:57:35:99:b5:7e:16:
                    16:fd:9e:4c:30:d8:de:09:81:4f:ce:ff:b2:dc:48:
                    9e:58:31:33:07:ce:9f:89:e8:30:c3:cc:3b:2e:3d:
                    63:88:21:9f:e3:4c:89:0a:46:35:45:cd:ad:5f:5e:
                    da:03:da:b7:21:e1:b8:70:3f:47:ed:1f:20:67:25:
                    d0:dc:c0:f2:c6:61:fa:e5:ca:28:ef:07:7a:79:d1:
                    a1:5a:f7:0d:cc:c8:31:b2:6c:a9:fe:78:8e:11:9a:
                    7e:26:07:76:b3:ec:cc:a1:d2:23:44:80:1a:85:05:
                    b1:c3:81:ea:c3:2c:21:09:8e:32:1f:3c:3a:60:dc:
                    c7:22:b8:04:1a:fd:73:e8:78:79:ea:88:69:4c:75:
                    5c:bc:d6:cb:9c:bc:65:5c:6f:65:59:78:a2:c3:00:
                    4e:90:36:da:27:cd:4a:10:68:0a:66:29:79:2d:85:
                    9e:b2:f4:e0:19:a3:b3:a7:f5:ab:6e:79:78:36:2b:
                    19:b8:0f:62:24:d9:6a:1e:c1:be:c0:14:d7:dd:5f:
                    fc:d5:0a:0d:e6:f7:c6:be:bd:4f:13:cf:18:0b:89:
                    bf:ab
                Exponent: 65537 (0x10001)
        X509v3 extensions:
            X509v3 Basic Constraints: 
                CA:FALSE
            Netscape Comment: 
                OpenSSL Generated Certificate
            X509v3 Subject Key Identifier: 
                02:C4:11:7C:33:56:82:9C:B4:B8:4D:D3:BA:2D:17:62:7B:D5:07:62
            X509v3 Authority Key Identifier: 
                53:48:5A:50:4D:78:80:6D:55:79:8A:FE:A9:A3:68:7A:04:9A:F0:87
    Signature Algorithm: sha256WithRSAEncryption
    Signature Value:
        67:09:c5:63:8f:03:0d:ed:57:db:be:8d:46:5a:67:26:09:c3:
        16:bb:19:40:b8:66:22:78:b3:fb:b5:0e:14:e8:9e:09:07:61:
        a4:bf:5f:e5:af:38:2b:38:eb:a8:01:1f:1a:4e:a3:11:42:4d:
        5d:5d:5f:55:86:fe:21:f1:ca:b4:26:de:3a:78:40:bb:f4:14:
        b8:b6:36:ea:30:75:00:89:b6:f0:c4:91:8a:06:f7:72:bd:4e:
        2f:2e:38:cf:a4:f0:59:ff:bd:83:17:25:65:68:54:de:39:b3:
        b3:82:6a:f8:40:24:26:33:1b:b0:cd:53:99:66:ea:d3:f3:df:
        6d:e0:9e:2f:7b:77:c7:4d:fa:8a:18:cb:25:34:88:f7:f0:75:
        72:75:d9:fe:85:45:c3:c3:b3:40:3b:62:36:ca:39:2e:f2:bc:
        dd:3e:eb:25:7e:6d:ac:db:d1:cc:54:39:dc:b8:5b:ef:19:c0:
        5f:a0:49:f3:a2:13:24:21:80:73:58:a8:1b:ef:49:a7:c7:47:
        49:78:a2:71:bd:a9:6d:c4:1f:cc:de:53:8e:16:f2:11:c1:9e:
        03:c7:b4:b8:eb:85:02:90:5e:56:2c:df:22:f4:0c:c0:8d:9a:
        7f:c0:86:c8:24:3c:05:36:34:2c:36:d0:f2:c8:6e:b9:b2:58:
        b1:a1:a7:54
-----BEGIN CERTIFICATE-----
MIID2TCCAsGgAwIBAgIBAjANBgkqhkiG9w0BAQsFADBlMQswCQYDVQQGEwJHQjET
MBEGA1UECAwKRGVyYnlzaGlyZTEaMBgGA1UECgwRTW9zcXVpdHRvIFByb2plY3Qx
EDAOBgNVBAsMB1Rlc3RpbmcxEzARBgNVBAMMClNpZ25pbmcgQ0EwHhcNMTIwODIw
MDAwMDAwWhcNMTIwODIxMDAwMDAwWjB+MQswCQYDVQQGEwJHQjEYMBYGA1UECAwP
Tm90dGluZ2hhbXNoaXJlMRMwEQYDVQQHDApOb3R0aW5naGFtMQ8wDQYDVQQKDAZT
ZXJ2ZXIxGzAZBgNVBAsMElByb2R1Y3Rpb24tZXhwaXJlZDESMBAGA1UEAwwJbG9j
YWxob3N0MIIBIjANBgkqhkiG9w0BAQEFAAOCAQ8AMIIBCgKCAQEAl6DILlCwFNeE
fvbozRvdOrntfaJjN0vlDyag+yeUQFyhJJooFV9XNZm1fhYW/Z5MMNjeCYFPzv+y
3EieWDEzB86fiegww8w7Lj1jiCGf40yJCkY1Rc2tX17aA9q3IeG4cD9H7R8gZyXQ
3MDyxmH65coo7wd6edGhWvcNzMgxsmyp/niOEZp+Jgd2s+zModIjRIAahQWxw4Hq
wywhCY4yHzw6YNzHIrgEGv1z6Hh56ohpTHVcvNbLnLxlXG9lWXiiwwBOkDbaJ81K
EGgKZil5LYWesvTgGaOzp/Wrbnl4NisZuA9iJNlqHsG+wBTX3V/81QoN5vfGvr1P
E88YC4m/qwIDAQABo3sweTAJBgNVHRMEAjAAMCwGCWCGSAGG+EIBDQQfFh1PcGVu
U1NMIEdlbmVyYXRlZCBDZXJ0aWZpY2F0ZTAdBgNVHQ4EFgQUAsQRfDNWgpy0uE3T
ui0XYnvVB2IwHwYDVR0jBBgwFoAUU0haUE14gG1VeYr+qaNoegSa8IcwDQYJKoZI
hvcNAQELBQADggEBAGcJxWOPAw3tV9u+jUZaZyYJwxa7GUC4ZiJ4s/u1DhTongkH
YaS/X+WvOCs466gBHxpOoxFCTV1dX1WG/iHxyrQm3jp4QLv0FLi2NuowdQCJtvDE
kYoG93K9Ti8uOM+k8Fn/vYMXJWVoVN45s7OCavhAJCYzG7DNU5lm6tPz323gni97
d8dN+ooYyyU0iPfwdXJ12f6FRcPDs0A7YjbKOS7yvN0+6yV+bazb0cxUOdy4W+8Z
wF+gSfOiEyQhgHNYqBvvSafHR0l4onG9qW3EH8zeU44W8hHBngPHtLjrhQKQXlYs
3yL0DMCNmn/AhsgkPAU2NCw20PLIbrmyWLGhp1Q=
-----END CERTIFICATE-----
